; Function Attrs: nounwind sspstrong uwtable
define hidden void @ruby_init_ext(ptr noundef %0, ptr noundef %1) local_unnamed_addr #0 {
  %3 = load ptr, ptr @ruby_current_vm_ptr, align 8, !tbaa !7
  %4 = tail call fastcc i32 @feature_provided(ptr noundef %3, ptr noundef %0, ptr noundef null)
  %.not = icmp eq i32 %4, 0
  br i1 %.not, label %5, label %14

5:                                                ; preds = %2
  %6 = getelementptr inbounds nuw i8, ptr %3, i64 656
  %7 = load ptr, ptr %6, align 8, !tbaa !109
  %.not10 = icmp eq ptr %7, null
  br i1 %.not10, label %8, label %10

8:                                                ; preds = %5
  %9 = tail call ptr @rb_st_init_strtable() #7
  store ptr %9, ptr %6, align 8, !tbaa !109
  br label %10

10:                                               ; preds = %8, %5
  %.0 = phi ptr [ %7, %5 ], [ %9, %8 ]
  %11 = ptrtoint ptr %0 to i64
  %12 = ptrtoint ptr %1 to i64
  %13 = tail call i32 @rb_st_update(ptr noundef %.0, i64 noundef %11, ptr noundef nonnull @register_init_ext, i64 noundef %12) #7
  br label %14

14:                                               ; preds = %2, %10
  ret void
}